; Function Attrs: mustprogress nounwind uwtable
define noundef i64 @_ZNK7xgboost6common21AlignedMemWriteStream4TellEv(ptr noundef nonnull readonly align 8 captures(none) dereferenceable(24) %0) local_unnamed_addr #10 align 2 personality ptr @__gxx_personality_v0 {
  %2 = getelementptr inbounds nuw i8, ptr %0, i64 16
  %3 = load ptr, ptr %2, align 8, !tbaa !144
  %4 = load ptr, ptr %3, align 8, !tbaa !16
  %5 = getelementptr inbounds nuw i8, ptr %4, i64 40
  %6 = load ptr, ptr %5, align 8
  %7 = invoke noundef i64 %6(ptr noundef nonnull align 8 dereferenceable(24) %3)
          to label %8 unwind label %9

8:                                                ; preds = %1
  ret i64 %7

9:                                                ; preds = %1
  %10 = landingpad { ptr, i32 }
          catch ptr null
  %11 = extractvalue { ptr, i32 } %10, 0
  tail call void @__clang_call_terminate(ptr %11) #39
  unreachable
}